(lp0
(lp1
(lp2
F8675.0
aF1711.0
aF-13.0
aF1734.0
aF-13.0
aa(lp3
F1735.0
aF-2949.0
aF8.0
aF-430.0
aF-0.0
aa(lp4
F-0.0
aF0.0
aF-0.0
aF0.0
aF0.0
aa(lp5
F1735.0
aF-435.0
aF0.0
aF163.0
aF-2.0
aa(lp6
F-0.0
aF0.0
aF0.0
aF0.0
aF-0.0
aaa(lp7
(lp8
F8675.0
aF1711.0
aF-13.0
aF1734.0
aF-13.0
aa(lp9
F1735.0
aF-2949.0
aF8.0
aF-430.0
aF-0.0
aa(lp10
F-0.0
aF0.0
aF-0.0
aF0.0
aF0.0
aa(lp11
F1735.0
aF-435.0
aF0.0
aF163.0
aF-2.0
aa(lp12
F-0.0
aF0.0
aF0.0
aF0.0
aF-0.0
aaa(lp13
(lp14
F8675.0
aF1711.0
aF-13.0
aF1734.0
aF-13.0
aa(lp15
F1735.0
aF-2949.0
aF8.0
aF-430.0
aF-0.0
aa(lp16
F-0.0
aF0.0
aF-0.0
aF0.0
aF0.0
aa(lp17
F1735.0
aF-435.0
aF0.0
aF163.0
aF-2.0
aa(lp18
F-0.0
aF0.0
aF0.0
aF0.0
aF-0.0
aaa(lp19
(lp20
F8675.0
aF1711.0
aF-13.0
aF1734.0
aF-13.0
aa(lp21
F1735.0
aF-2949.0
aF8.0
aF-430.0
aF-0.0
aa(lp22
F-0.0
aF0.0
aF-0.0
aF0.0
aF0.0
aa(lp23
F1735.0
aF-435.0
aF0.0
aF163.0
aF-2.0
aa(lp24
F-0.0
aF0.0
aF0.0
aF0.0
aF-0.0
aaa(lp25
(lp26
F8675.0
aF1711.0
aF-13.0
aF1734.0
aF-13.0
aa(lp27
F1735.0
aF-2949.0
aF8.0
aF-430.0
aF-0.0
aa(lp28
F-0.0
aF0.0
aF-0.0
aF0.0
aF0.0
aa(lp29
F1735.0
aF-435.0
aF0.0
aF163.0
aF-2.0
aa(lp30
F-0.0
aF0.0
aF0.0
aF0.0
aF-0.0
aaa(lp31
(lp32
F8675.0
aF1711.0
aF-13.0
aF1734.0
aF-13.0
aa(lp33
F1735.0
aF-2949.0
aF8.0
aF-430.0
aF-0.0
aa(lp34
F-0.0
aF0.0
aF-0.0
aF0.0
aF0.0
aa(lp35
F1735.0
aF-435.0
aF0.0
aF163.0
aF-2.0
aa(lp36
F-0.0
aF0.0
aF0.0
aF0.0
aF-0.0
aaa(lp37
(lp38
F8675.0
aF1711.0
aF-13.0
aF1734.0
aF-13.0
aa(lp39
F1735.0
aF-2949.0
aF8.0
aF-430.0
aF-0.0
aa(lp40
F-0.0
aF0.0
aF-0.0
aF0.0
aF0.0
aa(lp41
F1735.0
aF-435.0
aF0.0
aF163.0
aF-2.0
aa(lp42
F-0.0
aF0.0
aF0.0
aF0.0
aF-0.0
aaa(lp43
(lp44
F8675.0
aF1711.0
aF-13.0
aF1734.0
aF-13.0
aa(lp45
F1735.0
aF-2949.0
aF8.0
aF-430.0
aF-0.0
aa(lp46
F-0.0
aF0.0
aF-0.0
aF0.0
aF0.0
aa(lp47
F1735.0
aF-435.0
aF0.0
aF163.0
aF-2.0
aa(lp48
F-0.0
aF0.0
aF0.0
aF0.0
aF-0.0
aaa(lp49
(lp50
F8675.0
aF1711.0
aF-13.0
aF1734.0
aF-13.0
aa(lp51
F1735.0
aF-2949.0
aF8.0
aF-430.0
aF-0.0
aa(lp52
F-0.0
aF0.0
aF-0.0
aF0.0
aF0.0
aa(lp53
F1735.0
aF-435.0
aF0.0
aF163.0
aF-2.0
aa(lp54
F-0.0
aF0.0
aF0.0
aF0.0
aF-0.0
aaa(lp55
(lp56
F8675.0
aF1711.0
aF-13.0
aF1734.0
aF-13.0
aa(lp57
F1735.0
aF-2949.0
aF8.0
aF-430.0
aF-0.0
aa(lp58
F-0.0
aF0.0
aF-0.0
aF0.0
aF0.0
aa(lp59
F1735.0
aF-435.0
aF0.0
aF163.0
aF-2.0
aa(lp60
F-0.0
aF0.0
aF0.0
aF0.0
aF-0.0
aaa(lp61
(lp62
F8675.0
aF1711.0
aF-13.0
aF1734.0
aF-13.0
aa(lp63
F1735.0
aF-2949.0
aF8.0
aF-430.0
aF-0.0
aa(lp64
F-0.0
aF0.0
aF-0.0
aF0.0
aF0.0
aa(lp65
F1735.0
aF-435.0
aF0.0
aF163.0
aF-2.0
aa(lp66
F-0.0
aF0.0
aF0.0
aF0.0
aF-0.0
aaa(lp67
(lp68
F8675.0
aF1711.0
aF-13.0
aF1734.0
aF-13.0
aa(lp69
F1735.0
aF-2949.0
aF8.0
aF-430.0
aF-0.0
aa(lp70
F-0.0
aF0.0
aF-0.0
aF0.0
aF0.0
aa(lp71
F1735.0
aF-435.0
aF0.0
aF163.0
aF-2.0
aa(lp72
F-0.0
aF0.0
aF0.0
aF0.0
aF-0.0
aaa(lp73
(lp74
F8675.0
aF1711.0
aF-13.0
aF1734.0
aF-13.0
aa(lp75
F1735.0
aF-2949.0
aF8.0
aF-430.0
aF-0.0
aa(lp76
F-0.0
aF0.0
aF-0.0
aF0.0
aF0.0
aa(lp77
F1735.0
aF-435.0
aF0.0
aF163.0
aF-2.0
aa(lp78
F-0.0
aF0.0
aF0.0
aF0.0
aF-0.0
aaa(lp79
(lp80
F8675.0
aF1711.0
aF-13.0
aF1734.0
aF-13.0
aa(lp81
F1735.0
aF-2949.0
aF8.0
aF-430.0
aF-0.0
aa(lp82
F-0.0
aF0.0
aF-0.0
aF0.0
aF0.0
aa(lp83
F1735.0
aF-435.0
aF0.0
aF163.0
aF-2.0
aa(lp84
F-0.0
aF0.0
aF0.0
aF0.0
aF-0.0
aaa(lp85
(lp86
F8675.0
aF1711.0
aF-13.0
aF1734.0
aF-13.0
aa(lp87
F1735.0
aF-2949.0
aF8.0
aF-430.0
aF-0.0
aa(lp88
F-0.0
aF0.0
aF-0.0
aF0.0
aF0.0
aa(lp89
F1735.0
aF-435.0
aF0.0
aF163.0
aF-2.0
aa(lp90
F-0.0
aF0.0
aF0.0
aF0.0
aF-0.0
aaa(lp91
(lp92
F8675.0
aF1711.0
aF-13.0
aF1734.0
aF-13.0
aa(lp93
F1735.0
aF-2949.0
aF8.0
aF-430.0
aF-0.0
aa(lp94
F-0.0
aF0.0
aF-0.0
aF0.0
aF0.0
aa(lp95
F1735.0
aF-435.0
aF0.0
aF163.0
aF-2.0
aa(lp96
F-0.0
aF0.0
aF0.0
aF0.0
aF-0.0
aaa(lp97
(lp98
F8675.0
aF1711.0
aF-13.0
aF1734.0
aF-13.0
aa(lp99
F1735.0
aF-2949.0
aF8.0
aF-430.0
aF-0.0
aa(lp100
F-0.0
aF0.0
aF-0.0
aF0.0
aF0.0
aa(lp101
F1735.0
aF-435.0
aF0.0
aF163.0
aF-2.0
aa(lp102
F-0.0
aF0.0
aF0.0
aF0.0
aF-0.0
aaa(lp103
(lp104
F8675.0
aF1711.0
aF-13.0
aF1734.0
aF-13.0
aa(lp105
F1735.0
aF-2949.0
aF8.0
aF-430.0
aF-0.0
aa(lp106
F-0.0
aF0.0
aF-0.0
aF0.0
aF0.0
aa(lp107
F1735.0
aF-435.0
aF0.0
aF163.0
aF-2.0
aa(lp108
F-0.0
aF0.0
aF0.0
aF0.0
aF-0.0
aaa(lp109
(lp110
F8675.0
aF1711.0
aF-13.0
aF1734.0
aF-13.0
aa(lp111
F1735.0
aF-2949.0
aF8.0
aF-430.0
aF-0.0
aa(lp112
F-0.0
aF0.0
aF-0.0
aF0.0
aF0.0
aa(lp113
F1735.0
aF-435.0
aF0.0
aF163.0
aF-2.0
aa(lp114
F-0.0
aF0.0
aF0.0
aF0.0
aF-0.0
aaa(lp115
(lp116
F8675.0
aF1711.0
aF-13.0
aF1734.0
aF-13.0
aa(lp117
F1735.0
aF-2949.0
aF8.0
aF-430.0
aF-0.0
aa(lp118
F-0.0
aF0.0
aF-0.0
aF0.0
aF0.0
aa(lp119
F1735.0
aF-435.0
aF0.0
aF163.0
aF-2.0
aa(lp120
F-0.0
aF0.0
aF0.0
aF0.0
aF-0.0
aaa(lp121
(lp122
F8675.0
aF1711.0
aF-13.0
aF1734.0
aF-13.0
aa(lp123
F1735.0
aF-2949.0
aF8.0
aF-430.0
aF-0.0
aa(lp124
F-0.0
aF0.0
aF-0.0
aF0.0
aF0.0
aa(lp125
F1735.0
aF-435.0
aF0.0
aF163.0
aF-2.0
aa(lp126
F-0.0
aF0.0
aF0.0
aF0.0
aF-0.0
aaa(lp127
(lp128
F8675.0
aF1711.0
aF-13.0
aF1734.0
aF-13.0
aa(lp129
F1735.0
aF-2949.0
aF8.0
aF-430.0
aF-0.0
aa(lp130
F-0.0
aF0.0
aF-0.0
aF0.0
aF0.0
aa(lp131
F1735.0
aF-435.0
aF0.0
aF163.0
aF-2.0
aa(lp132
F-0.0
aF0.0
aF0.0
aF0.0
aF-0.0
aaa(lp133
(lp134
F8675.0
aF1711.0
aF-13.0
aF1734.0
aF-13.0
aa(lp135
F1735.0
aF-2949.0
aF8.0
aF-430.0
aF-0.0
aa(lp136
F-0.0
aF0.0
aF-0.0
aF0.0
aF0.0
aa(lp137
F1735.0
aF-435.0
aF0.0
aF163.0
aF-2.0
aa(lp138
F-0.0
aF0.0
aF0.0
aF0.0
aF-0.0
aaa(lp139
(lp140
F8675.0
aF1711.0
aF-13.0
aF1734.0
aF-13.0
aa(lp141
F1735.0
aF-2949.0
aF8.0
aF-430.0
aF-0.0
aa(lp142
F-0.0
aF0.0
aF-0.0
aF0.0
aF0.0
aa(lp143
F1735.0
aF-435.0
aF0.0
aF163.0
aF-2.0
aa(lp144
F-0.0
aF0.0
aF0.0
aF0.0
aF-0.0
aaa(lp145
(lp146
F8675.0
aF1711.0
aF-13.0
aF1734.0
aF-13.0
aa(lp147
F1735.0
aF-2949.0
aF8.0
aF-430.0
aF-0.0
aa(lp148
F-0.0
aF0.0
aF-0.0
aF0.0
aF0.0
aa(lp149
F1735.0
aF-435.0
aF0.0
aF163.0
aF-2.0
aa(lp150
F-0.0
aF0.0
aF0.0
aF0.0
aF-0.0
aaa(lp151
(lp152
F8675.0
aF1711.0
aF-13.0
aF1734.0
aF-13.0
aa(lp153
F1735.0
aF-2949.0
aF8.0
aF-430.0
aF-0.0
aa(lp154
F-0.0
aF0.0
aF-0.0
aF0.0
aF0.0
aa(lp155
F1735.0
aF-435.0
aF0.0
aF163.0
aF-2.0
aa(lp156
F-0.0
aF0.0
aF0.0
aF0.0
aF-0.0
aaa(lp157
(lp158
F8675.0
aF1711.0
aF-13.0
aF1734.0
aF-13.0
aa(lp159
F1735.0
aF-2949.0
aF8.0
aF-430.0
aF-0.0
aa(lp160
F-0.0
aF0.0
aF-0.0
aF0.0
aF0.0
aa(lp161
F1735.0
aF-435.0
aF0.0
aF163.0
aF-2.0
aa(lp162
F-0.0
aF0.0
aF0.0
aF0.0
aF-0.0
aaa(lp163
(lp164
F8675.0
aF1711.0
aF-13.0
aF1734.0
aF-13.0
aa(lp165
F1735.0
aF-2949.0
aF8.0
aF-430.0
aF-0.0
aa(lp166
F-0.0
aF0.0
aF-0.0
aF0.0
aF0.0
aa(lp167
F1735.0
aF-435.0
aF0.0
aF163.0
aF-2.0
aa(lp168
F-0.0
aF0.0
aF0.0
aF0.0
aF-0.0
aaa(lp169
(lp170
F8675.0
aF1711.0
aF-13.0
aF1734.0
aF-13.0
aa(lp171
F1735.0
aF-2949.0
aF8.0
aF-430.0
aF-0.0
aa(lp172
F-0.0
aF0.0
aF-0.0
aF0.0
aF0.0
aa(lp173
F1735.0
aF-435.0
aF0.0
aF163.0
aF-2.0
aa(lp174
F-0.0
aF0.0
aF0.0
aF0.0
aF-0.0
aaa(lp175
(lp176
F8675.0
aF1711.0
aF-13.0
aF1734.0
aF-13.0
aa(lp177
F1735.0
aF-2949.0
aF8.0
aF-430.0
aF-0.0
aa(lp178
F-0.0
aF0.0
aF-0.0
aF0.0
aF0.0
aa(lp179
F1735.0
aF-435.0
aF0.0
aF163.0
aF-2.0
aa(lp180
F-0.0
aF0.0
aF0.0
aF0.0
aF-0.0
aaa(lp181
(lp182
F8675.0
aF1711.0
aF-13.0
aF1734.0
aF-13.0
aa(lp183
F1735.0
aF-2949.0
aF8.0
aF-430.0
aF-0.0
aa(lp184
F-0.0
aF0.0
aF-0.0
aF0.0
aF0.0
aa(lp185
F1735.0
aF-435.0
aF0.0
aF163.0
aF-2.0
aa(lp186
F-0.0
aF0.0
aF0.0
aF0.0
aF-0.0
aaa(lp187
(lp188
F8675.0
aF1711.0
aF-13.0
aF1734.0
aF-13.0
aa(lp189
F1735.0
aF-2949.0
aF8.0
aF-430.0
aF-0.0
aa(lp190
F-0.0
aF0.0
aF-0.0
aF0.0
aF0.0
aa(lp191
F1735.0
aF-435.0
aF0.0
aF163.0
aF-2.0
aa(lp192
F-0.0
aF0.0
aF0.0
aF0.0
aF-0.0
aaa(lp193
(lp194
F8675.0
aF1711.0
aF-13.0
aF1734.0
aF-13.0
aa(lp195
F1735.0
aF-2949.0
aF8.0
aF-430.0
aF-0.0
aa(lp196
F-0.0
aF0.0
aF-0.0
aF0.0
aF0.0
aa(lp197
F1735.0
aF-435.0
aF0.0
aF163.0
aF-2.0
aa(lp198
F-0.0
aF0.0
aF0.0
aF0.0
aF-0.0
aaa(lp199
(lp200
F8675.0
aF1711.0
aF-13.0
aF1734.0
aF-13.0
aa(lp201
F1735.0
aF-2949.0
aF8.0
aF-430.0
aF-0.0
aa(lp202
F-0.0
aF0.0
aF-0.0
aF0.0
aF0.0
aa(lp203
F1735.0
aF-435.0
aF0.0
aF163.0
aF-2.0
aa(lp204
F-0.0
aF0.0
aF0.0
aF0.0
aF-0.0
aaa(lp205
(lp206
F8675.0
aF1711.0
aF-13.0
aF1734.0
aF-13.0
aa(lp207
F1735.0
aF-2949.0
aF8.0
aF-430.0
aF-0.0
aa(lp208
F-0.0
aF0.0
aF-0.0
aF0.0
aF0.0
aa(lp209
F1735.0
aF-435.0
aF0.0
aF163.0
aF-2.0
aa(lp210
F-0.0
aF0.0
aF0.0
aF0.0
aF-0.0
aaa(lp211
(lp212
F8675.0
aF1711.0
aF-13.0
aF1734.0
aF-13.0
aa(lp213
F1735.0
aF-2949.0
aF8.0
aF-430.0
aF-0.0
aa(lp214
F-0.0
aF0.0
aF-0.0
aF0.0
aF0.0
aa(lp215
F1735.0
aF-435.0
aF0.0
aF163.0
aF-2.0
aa(lp216
F-0.0
aF0.0
aF0.0
aF0.0
aF-0.0
aaa(lp217
(lp218
F8675.0
aF1711.0
aF-13.0
aF1734.0
aF-13.0
aa(lp219
F1735.0
aF-2949.0
aF8.0
aF-430.0
aF-0.0
aa(lp220
F-0.0
aF0.0
aF-0.0
aF0.0
aF0.0
aa(lp221
F1735.0
aF-435.0
aF0.0
aF163.0
aF-2.0
aa(lp222
F-0.0
aF0.0
aF0.0
aF0.0
aF-0.0
aaa(lp223
(lp224
F8675.0
aF1711.0
aF-13.0
aF1734.0
aF-13.0
aa(lp225
F1735.0
aF-2949.0
aF8.0
aF-430.0
aF-0.0
aa(lp226
F-0.0
aF0.0
aF-0.0
aF0.0
aF0.0
aa(lp227
F1735.0
aF-435.0
aF0.0
aF163.0
aF-2.0
aa(lp228
F-0.0
aF0.0
aF0.0
aF0.0
aF-0.0
aaa(lp229
(lp230
F8675.0
aF1711.0
aF-13.0
aF1734.0
aF-13.0
aa(lp231
F1735.0
aF-2949.0
aF8.0
aF-430.0
aF-0.0
aa(lp232
F-0.0
aF0.0
aF-0.0
aF0.0
aF0.0
aa(lp233
F1735.0
aF-435.0
aF0.0
aF163.0
aF-2.0
aa(lp234
F-0.0
aF0.0
aF0.0
aF0.0
aF-0.0
aaa(lp235
(lp236
F8675.0
aF1711.0
aF-13.0
aF1734.0
aF-13.0
aa(lp237
F1735.0
aF-2949.0
aF8.0
aF-430.0
aF-0.0
aa(lp238
F-0.0
aF0.0
aF-0.0
aF0.0
aF0.0
aa(lp239
F1735.0
aF-435.0
aF0.0
aF163.0
aF-2.0
aa(lp240
F-0.0
aF0.0
aF0.0
aF0.0
aF-0.0
aaa(lp241
(lp242
F8675.0
aF1711.0
aF-13.0
aF1734.0
aF-13.0
aa(lp243
F1735.0
aF-2949.0
aF8.0
aF-430.0
aF-0.0
aa(lp244
F-0.0
aF0.0
aF-0.0
aF0.0
aF0.0
aa(lp245
F1735.0
aF-435.0
aF0.0
aF163.0
aF-2.0
aa(lp246
F-0.0
aF0.0
aF0.0
aF0.0
aF-0.0
aaa(lp247
(lp248
F8675.0
aF1711.0
aF-13.0
aF1734.0
aF-13.0
aa(lp249
F1735.0
aF-2949.0
aF8.0
aF-430.0
aF-0.0
aa(lp250
F-0.0
aF0.0
aF-0.0
aF0.0
aF0.0
aa(lp251
F1735.0
aF-435.0
aF0.0
aF163.0
aF-2.0
aa(lp252
F-0.0
aF0.0
aF0.0
aF0.0
aF-0.0
aaa(lp253
(lp254
F8675.0
aF1711.0
aF-13.0
aF1734.0
aF-13.0
aa(lp255
F1735.0
aF-2949.0
aF8.0
aF-430.0
aF-0.0
aa(lp256
F-0.0
aF0.0
aF-0.0
aF0.0
aF0.0
aa(lp257
F1735.0
aF-435.0
aF0.0
aF163.0
aF-2.0
aa(lp258
F-0.0
aF0.0
aF0.0
aF0.0
aF-0.0
aaa(lp259
(lp260
F8675.0
aF1711.0
aF-13.0
aF1734.0
aF-13.0
aa(lp261
F1735.0
aF-2949.0
aF8.0
aF-430.0
aF-0.0
aa(lp262
F-0.0
aF0.0
aF-0.0
aF0.0
aF0.0
aa(lp263
F1735.0
aF-435.0
aF0.0
aF163.0
aF-2.0
aa(lp264
F-0.0
aF0.0
aF0.0
aF0.0
aF-0.0
aaa(lp265
(lp266
F8675.0
aF1711.0
aF-13.0
aF1734.0
aF-13.0
aa(lp267
F1735.0
aF-2949.0
aF8.0
aF-430.0
aF-0.0
aa(lp268
F-0.0
aF0.0
aF-0.0
aF0.0
aF0.0
aa(lp269
F1735.0
aF-435.0
aF0.0
aF163.0
aF-2.0
aa(lp270
F-0.0
aF0.0
aF0.0
aF0.0
aF-0.0
aaa(lp271
(lp272
F8675.0
aF1711.0
aF-13.0
aF1734.0
aF-13.0
aa(lp273
F1735.0
aF-2949.0
aF8.0
aF-430.0
aF-0.0
aa(lp274
F-0.0
aF0.0
aF-0.0
aF0.0
aF0.0
aa(lp275
F1735.0
aF-435.0
aF0.0
aF163.0
aF-2.0
aa(lp276
F-0.0
aF0.0
aF0.0
aF0.0
aF-0.0
aaa(lp277
(lp278
F8675.0
aF1711.0
aF-13.0
aF1734.0
aF-13.0
aa(lp279
F1735.0
aF-2949.0
aF8.0
aF-430.0
aF-0.0
aa(lp280
F-0.0
aF0.0
aF-0.0
aF0.0
aF0.0
aa(lp281
F1735.0
aF-435.0
aF0.0
aF163.0
aF-2.0
aa(lp282
F-0.0
aF0.0
aF0.0
aF0.0
aF-0.0
aaa(lp283
(lp284
F8675.0
aF1711.0
aF-13.0
aF1734.0
aF-13.0
aa(lp285
F1735.0
aF-2949.0
aF8.0
aF-430.0
aF-0.0
aa(lp286
F-0.0
aF0.0
aF-0.0
aF0.0
aF0.0
aa(lp287
F1735.0
aF-435.0
aF0.0
aF163.0
aF-2.0
aa(lp288
F-0.0
aF0.0
aF0.0
aF0.0
aF-0.0
aaa(lp289
(lp290
F8675.0
aF1711.0
aF-13.0
aF1734.0
aF-13.0
aa(lp291
F1735.0
aF-2949.0
aF8.0
aF-430.0
aF-0.0
aa(lp292
F-0.0
aF0.0
aF-0.0
aF0.0
aF0.0
aa(lp293
F1735.0
aF-435.0
aF0.0
aF163.0
aF-2.0
aa(lp294
F-0.0
aF0.0
aF0.0
aF0.0
aF-0.0
aaa(lp295
(lp296
F8675.0
aF1711.0
aF-13.0
aF1734.0
aF-13.0
aa(lp297
F1735.0
aF-2949.0
aF8.0
aF-430.0
aF-0.0
aa(lp298
F-0.0
aF0.0
aF-0.0
aF0.0
aF0.0
aa(lp299
F1735.0
aF-435.0
aF0.0
aF163.0
aF-2.0
aa(lp300
F-0.0
aF0.0
aF0.0
aF0.0
aF-0.0
aaa(lp301
(lp302
F8675.0
aF1711.0
aF-13.0
aF1734.0
aF-13.0
aa(lp303
F1735.0
aF-2949.0
aF8.0
aF-430.0
aF-0.0
aa(lp304
F-0.0
aF0.0
aF-0.0
aF0.0
aF0.0
aa(lp305
F1735.0
aF-435.0
aF0.0
aF163.0
aF-2.0
aa(lp306
F-0.0
aF0.0
aF0.0
aF0.0
aF-0.0
aaa(lp307
(lp308
F8675.0
aF1711.0
aF-13.0
aF1734.0
aF-13.0
aa(lp309
F1735.0
aF-2949.0
aF8.0
aF-430.0
aF-0.0
aa(lp310
F-0.0
aF0.0
aF-0.0
aF0.0
aF0.0
aa(lp311
F1735.0
aF-435.0
aF0.0
aF163.0
aF-2.0
aa(lp312
F-0.0
aF0.0
aF0.0
aF0.0
aF-0.0
aaa(lp313
(lp314
F8675.0
aF1711.0
aF-13.0
aF1734.0
aF-13.0
aa(lp315
F1735.0
aF-2949.0
aF8.0
aF-430.0
aF-0.0
aa(lp316
F-0.0
aF0.0
aF-0.0
aF0.0
aF0.0
aa(lp317
F1735.0
aF-435.0
aF0.0
aF163.0
aF-2.0
aa(lp318
F-0.0
aF0.0
aF0.0
aF0.0
aF-0.0
aaa(lp319
(lp320
F8675.0
aF1711.0
aF-13.0
aF1734.0
aF-13.0
aa(lp321
F1735.0
aF-2949.0
aF8.0
aF-430.0
aF-0.0
aa(lp322
F-0.0
aF0.0
aF-0.0
aF0.0
aF0.0
aa(lp323
F1735.0
aF-435.0
aF0.0
aF163.0
aF-2.0
aa(lp324
F-0.0
aF0.0
aF0.0
aF0.0
aF-0.0
aaa(lp325
(lp326
F8675.0
aF1711.0
aF-13.0
aF1734.0
aF-13.0
aa(lp327
F1735.0
aF-2949.0
aF8.0
aF-430.0
aF-0.0
aa(lp328
F-0.0
aF0.0
aF-0.0
aF0.0
aF0.0
aa(lp329
F1735.0
aF-435.0
aF0.0
aF163.0
aF-2.0
aa(lp330
F-0.0
aF0.0
aF0.0
aF0.0
aF-0.0
aaa(lp331
(lp332
F8675.0
aF1711.0
aF-13.0
aF1734.0
aF-13.0
aa(lp333
F1735.0
aF-2949.0
aF8.0
aF-430.0
aF-0.0
aa(lp334
F-0.0
aF0.0
aF-0.0
aF0.0
aF0.0
aa(lp335
F1735.0
aF-435.0
aF0.0
aF163.0
aF-2.0
aa(lp336
F-0.0
aF0.0
aF0.0
aF0.0
aF-0.0
aaa(lp337
(lp338
F8675.0
aF1711.0
aF-13.0
aF1734.0
aF-13.0
aa(lp339
F1735.0
aF-2949.0
aF8.0
aF-430.0
aF-0.0
aa(lp340
F-0.0
aF0.0
aF-0.0
aF0.0
aF0.0
aa(lp341
F1735.0
aF-435.0
aF0.0
aF163.0
aF-2.0
aa(lp342
F-0.0
aF0.0
aF0.0
aF0.0
aF-0.0
aaa(lp343
(lp344
F8675.0
aF1711.0
aF-13.0
aF1734.0
aF-13.0
aa(lp345
F1735.0
aF-2949.0
aF8.0
aF-430.0
aF-0.0
aa(lp346
F-0.0
aF0.0
aF-0.0
aF0.0
aF0.0
aa(lp347
F1735.0
aF-435.0
aF0.0
aF163.0
aF-2.0
aa(lp348
F-0.0
aF0.0
aF0.0
aF0.0
aF-0.0
aaa(lp349
(lp350
F8675.0
aF1711.0
aF-13.0
aF1734.0
aF-13.0
aa(lp351
F1735.0
aF-2949.0
aF8.0
aF-430.0
aF-0.0
aa(lp352
F-0.0
aF0.0
aF-0.0
aF0.0
aF0.0
aa(lp353
F1735.0
aF-435.0
aF0.0
aF163.0
aF-2.0
aa(lp354
F-0.0
aF0.0
aF0.0
aF0.0
aF-0.0
aaa(lp355
(lp356
F8675.0
aF1711.0
aF-13.0
aF1734.0
aF-13.0
aa(lp357
F1735.0
aF-2949.0
aF8.0
aF-430.0
aF-0.0
aa(lp358
F-0.0
aF0.0
aF-0.0
aF0.0
aF0.0
aa(lp359
F1735.0
aF-435.0
aF0.0
aF163.0
aF-2.0
aa(lp360
F-0.0
aF0.0
aF0.0
aF0.0
aF-0.0
aaa(lp361
(lp362
F8675.0
aF1711.0
aF-13.0
aF1734.0
aF-13.0
aa(lp363
F1735.0
aF-2949.0
aF8.0
aF-430.0
aF-0.0
aa(lp364
F-0.0
aF0.0
aF-0.0
aF0.0
aF0.0
aa(lp365
F1735.0
aF-435.0
aF0.0
aF163.0
aF-2.0
aa(lp366
F-0.0
aF0.0
aF0.0
aF0.0
aF-0.0
aaa(lp367
(lp368
F8675.0
aF1711.0
aF-13.0
aF1734.0
aF-13.0
aa(lp369
F1735.0
aF-2949.0
aF8.0
aF-430.0
aF-0.0
aa(lp370
F-0.0
aF0.0
aF-0.0
aF0.0
aF0.0
aa(lp371
F1735.0
aF-435.0
aF0.0
aF163.0
aF-2.0
aa(lp372
F-0.0
aF0.0
aF0.0
aF0.0
aF-0.0
aaa(lp373
(lp374
F8675.0
aF1711.0
aF-13.0
aF1734.0
aF-13.0
aa(lp375
F1735.0
aF-2949.0
aF8.0
aF-430.0
aF-0.0
aa(lp376
F-0.0
aF0.0
aF-0.0
aF0.0
aF0.0
aa(lp377
F1735.0
aF-435.0
aF0.0
aF163.0
aF-2.0
aa(lp378
F-0.0
aF0.0
aF0.0
aF0.0
aF-0.0
aaa(lp379
(lp380
F8675.0
aF1711.0
aF-13.0
aF1734.0
aF-13.0
aa(lp381
F1735.0
aF-2949.0
aF8.0
aF-430.0
aF-0.0
aa(lp382
F-0.0
aF0.0
aF-0.0
aF0.0
aF0.0
aa(lp383
F1735.0
aF-435.0
aF0.0
aF163.0
aF-2.0
aa(lp384
F-0.0
aF0.0
aF0.0
aF0.0
aF-0.0
aaa(lp385
(lp386
F8675.0
aF1711.0
aF-13.0
aF1734.0
aF-13.0
aa(lp387
F1735.0
aF-2949.0
aF8.0
aF-430.0
aF-0.0
aa(lp388
F-0.0
aF0.0
aF-0.0
aF0.0
aF0.0
aa(lp389
F1735.0
aF-435.0
aF0.0
aF163.0
aF-2.0
aa(lp390
F-0.0
aF0.0
aF0.0
aF0.0
aF-0.0
aaa(lp391
(lp392
F8675.0
aF1711.0
aF-13.0
aF1734.0
aF-13.0
aa(lp393
F1735.0
aF-2949.0
aF8.0
aF-430.0
aF-0.0
aa(lp394
F-0.0
aF0.0
aF-0.0
aF0.0
aF0.0
aa(lp395
F1735.0
aF-435.0
aF0.0
aF163.0
aF-2.0
aa(lp396
F-0.0
aF0.0
aF0.0
aF0.0
aF-0.0
aaa(lp397
(lp398
F8675.0
aF1711.0
aF-13.0
aF1734.0
aF-13.0
aa(lp399
F1735.0
aF-2949.0
aF8.0
aF-430.0
aF-0.0
aa(lp400
F-0.0
aF0.0
aF-0.0
aF0.0
aF0.0
aa(lp401
F1735.0
aF-435.0
aF0.0
aF163.0
aF-2.0
aa(lp402
F-0.0
aF0.0
aF0.0
aF0.0
aF-0.0
aaa(lp403
(lp404
F8675.0
aF1711.0
aF-13.0
aF1734.0
aF-13.0
aa(lp405
F1735.0
aF-2949.0
aF8.0
aF-430.0
aF-0.0
aa(lp406
F-0.0
aF0.0
aF-0.0
aF0.0
aF0.0
aa(lp407
F1735.0
aF-435.0
aF0.0
aF163.0
aF-2.0
aa(lp408
F-0.0
aF0.0
aF0.0
aF0.0
aF-0.0
aaa(lp409
(lp410
F8675.0
aF1711.0
aF-13.0
aF1734.0
aF-13.0
aa(lp411
F1735.0
aF-2949.0
aF8.0
aF-430.0
aF-0.0
aa(lp412
F-0.0
aF0.0
aF-0.0
aF0.0
aF0.0
aa(lp413
F1735.0
aF-435.0
aF0.0
aF163.0
aF-2.0
aa(lp414
F-0.0
aF0.0
aF0.0
aF0.0
aF-0.0
aaa(lp415
(lp416
F8675.0
aF1711.0
aF-13.0
aF1734.0
aF-13.0
aa(lp417
F1735.0
aF-2949.0
aF8.0
aF-430.0
aF-0.0
aa(lp418
F-0.0
aF0.0
aF-0.0
aF0.0
aF0.0
aa(lp419
F1735.0
aF-435.0
aF0.0
aF163.0
aF-2.0
aa(lp420
F-0.0
aF0.0
aF0.0
aF0.0
aF-0.0
aaa.